; Function Attrs: mustprogress nounwind uwtable
define dso_local i64 @_ZNK5clang14ObjCMethodDecl17getSendResultTypeENS_8QualTypeE(ptr noundef nonnull align 8 dereferenceable(136) %0, i64 %1) local_unnamed_addr #0 align 2 {
  %3 = alloca %"class.clang::QualType", align 8
  %4 = alloca %"class.clang::QualType", align 8
  %5 = getelementptr inbounds nuw i8, ptr %0, i64 80
  %.sroa.0.0.copyload.i = load i64, ptr %5, align 8
  store i64 %.sroa.0.0.copyload.i, ptr %4, align 8
  %6 = tail call noundef nonnull align 8 dereferenceable(23096) ptr @_ZNK5clang4Decl13getASTContextEv(ptr noundef nonnull align 8 dereferenceable(33) %0) #24
  %7 = call i64 @_ZNK5clang8QualType20getNonLValueExprTypeERKNS_10ASTContextE(ptr noundef nonnull align 8 dereferenceable(8) %4, ptr noundef nonnull align 8 dereferenceable(23096) %6) #23
  store i64 %7, ptr %3, align 8
  %8 = getelementptr inbounds nuw i8, ptr %0, i64 16
  %.0.copyload.i.i.i.i.i.i.i.i.i.i.i = load i64, ptr %8, align 8
  %9 = and i64 %.0.copyload.i.i.i.i.i.i.i.i.i.i.i, 4
  %10 = icmp eq i64 %9, 0
  %11 = and i64 %.0.copyload.i.i.i.i.i.i.i.i.i.i.i, -8
  %12 = inttoptr i64 %11 to ptr
  br i1 %10, label %_ZNK5clang4Decl14getDeclContextEv.exit, label %13

13:                                               ; preds = %2
  %14 = load ptr, ptr %12, align 8
  br label %_ZNK5clang4Decl14getDeclContextEv.exit

_ZNK5clang4Decl14getDeclContextEv.exit:           ; preds = %2, %13
  %.0.i.i = phi ptr [ %14, %13 ], [ %12, %2 ]
  %15 = call i64 @_ZNK5clang8QualType19substObjCMemberTypeES0_PKNS_11DeclContextENS_23ObjCSubstitutionContextE(ptr noundef nonnull align 8 dereferenceable(8) %3, i64 %1, ptr noundef %.0.i.i, i32 noundef 1) #23
  ret i64 %15
}